target datalayout = "e-m:e-p270:32:32-p271:32:32-p272:64:64-i64:64-i128:128-f80:128-n8:16:32:64-S128"
target triple = "x86_64-pc-linux-gnu"

%struct.t_nrnb_data = type { ptr, i32 }
%struct.t_nrnb = type { %"struct.std::array" }
%"struct.std::array" = type { [116 x double] }

@.str = private unnamed_addr constant [16 x i8] c" %-26s %10.0f.\0A\00", align 1

; Function Attrs: mustprogress nounwind uwtable
define linkonce_odr noundef nonnull align 8 dereferenceable(8) ptr @_ZNSt14__array_traitsIdLm116EE6_S_refERA116_Kdm(ptr noundef nonnull align 8 dereferenceable(928) %0, i64 noundef %1) #0 comdat align 2 {
  %3 = alloca ptr, align 8
  %4 = alloca i64, align 8
  store ptr %0, ptr %3, align 8, !tbaa !19
  store i64 %1, ptr %4, align 8, !tbaa !17
  %5 = load ptr, ptr %3, align 8, !tbaa !19
  %6 = load i64, ptr %4, align 8, !tbaa !17
  %7 = getelementptr inbounds nuw [116 x double], ptr %5, i64 0, i64 %6
  ret ptr %7
}

; Function Attrs: mustprogress nounwind uwtable
define linkonce_odr noundef nonnull align 8 dereferenceable(8) ptr @_ZNSt5arrayIdLm116EEixEm(ptr noundef nonnull align 8 dereferenceable(928) %0, i64 noundef %1) #0 comdat align 2 {
  %3 = alloca ptr, align 8
  %4 = alloca i64, align 8
  store ptr %0, ptr %3, align 8, !tbaa !15
  store i64 %1, ptr %4, align 8, !tbaa !17
  %5 = load ptr, ptr %3, align 8
  %6 = getelementptr inbounds nuw %"struct.std::array", ptr %5, i32 0, i32 0
  %7 = load i64, ptr %4, align 8, !tbaa !17
  %8 = call noundef nonnull align 8 dereferenceable(8) ptr @_ZNSt14__array_traitsIdLm116EE6_S_refERA116_Kdm(ptr noundef nonnull align 8 dereferenceable(928) %6, i64 noundef %7) #6
  ret ptr %8
}

; Function Attrs: mustprogress nounwind uwtable
define void @_Z10print_nrnbP8_IO_FILEP6t_nrnb(ptr noundef %0, ptr noundef %1) #0 {
  %3 = alloca ptr, align 8
  %4 = alloca ptr, align 8
  %5 = alloca i32, align 4
  store ptr %0, ptr %3, align 8, !tbaa !21
  store ptr %1, ptr %4, align 8, !tbaa !4
  call void @llvm.lifetime.start.p0(i64 4, ptr %5) #6
  store i32 0, ptr %5, align 4, !tbaa !9
  br label %6

6:                                                ; preds = %33, %2
  %7 = load i32, ptr %5, align 4, !tbaa !9
  %8 = icmp slt i32 %7, 116
  br i1 %8, label %10, label %9

9:                                                ; preds = %6
  call void @llvm.lifetime.end.p0(i64 4, ptr %5) #6
  br label %36

10:                                               ; preds = %6
  %11 = load ptr, ptr %4, align 8, !tbaa !4
  %12 = getelementptr inbounds nuw %struct.t_nrnb, ptr %11, i32 0, i32 0
  %13 = load i32, ptr %5, align 4, !tbaa !9
  %14 = sext i32 %13 to i64
  %15 = call noundef nonnull align 8 dereferenceable(8) ptr @_ZNSt5arrayIdLm116EEixEm(ptr noundef nonnull align 8 dereferenceable(928) %12, i64 noundef %14) #6
  %16 = load double, ptr %15, align 8, !tbaa !11
  %17 = fcmp ogt double %16, 0.000000e+00
  br i1 %17, label %18, label %32

18:                                               ; preds = %10
  %19 = load ptr, ptr %3, align 8, !tbaa !21
  %20 = load i32, ptr %5, align 4, !tbaa !9
  %21 = sext i32 %20 to i64
  %22 = getelementptr inbounds [116 x %struct.t_nrnb_data], ptr @_ZL6nbdata, i64 0, i64 %21
  %23 = getelementptr inbounds nuw %struct.t_nrnb_data, ptr %22, i32 0, i32 0
  %24 = load ptr, ptr %23, align 16, !tbaa !23
  %25 = load ptr, ptr %4, align 8, !tbaa !4
  %26 = getelementptr inbounds nuw %struct.t_nrnb, ptr %25, i32 0, i32 0
  %27 = load i32, ptr %5, align 4, !tbaa !9
  %28 = sext i32 %27 to i64
  %29 = call noundef nonnull align 8 dereferenceable(8) ptr @_ZNSt5arrayIdLm116EEixEm(ptr noundef nonnull align 8 dereferenceable(928) %26, i64 noundef %28) #6
  %30 = load double, ptr %29, align 8, !tbaa !11
  %31 = call i32 (ptr, ptr, ...) @fprintf(ptr noundef %19, ptr noundef @.str, ptr noundef %24, double noundef %30) #6
  br label %32

32:                                               ; preds = %18, %10
  br label %33

33:                                               ; preds = %32
  %34 = load i32, ptr %5, align 4, !tbaa !9
  %35 = add nsw i32 %34, 1
  store i32 %35, ptr %5, align 4, !tbaa !9
  br label %6, !llvm.loop !26

36:                                               ; preds = %9
  ret void
}