; Function Attrs: mustprogress nofree nounwind uwtable
define void @_Z10print_nrnbP8_IO_FILEP6t_nrnb(ptr noundef captures(none) %0, ptr noundef readonly captures(none) %1) local_unnamed_addr #1 {
  br label %4

3:                                                ; preds = %12
  ret void

4:                                                ; preds = %2, %12
  %indvars.iv = phi i64 [ 0, %2 ], [ %indvars.iv.next, %12 ]
  %5 = getelementptr inbounds nuw [116 x double], ptr %1, i64 0, i64 %indvars.iv
  %6 = load double, ptr %5, align 8, !tbaa !4
  %7 = fcmp ogt double %6, 0.000000e+00
  br i1 %7, label %8, label %12

8:                                                ; preds = %4
  %9 = getelementptr inbounds nuw [116 x %struct.t_nrnb_data], ptr @_ZL6nbdata, i64 0, i64 %indvars.iv
  %10 = load ptr, ptr %9, align 16, !tbaa !8
  %11 = tail call i32 (ptr, ptr, ...) @fprintf(ptr noundef %0, ptr noundef nonnull @.str, ptr noundef %10, double noundef %6) #10
  br label %12

12:                                               ; preds = %4, %8
  %indvars.iv.next = add nuw nsw i64 %indvars.iv, 1
  %exitcond.not = icmp eq i64 %indvars.iv.next, 116
  br i1 %exitcond.not, label %3, label %4, !llvm.loop !13
}